target datalayout = "e-m:e-p270:32:32-p271:32:32-p272:64:64-i64:64-i128:128-f80:128-n8:16:32:64-S128"
target triple = "x86_64-pc-linux-gnu"

%struct.Abc_Obj_t_ = type { ptr, ptr, i32, i32, %struct.Vec_Int_t_, %struct.Vec_Int_t_, %union.anon, %union.anon.0 }
%struct.Vec_Int_t_ = type { i32, i32, ptr }
%union.anon = type { ptr }
%union.anon.0 = type { ptr }
%struct.Abc_Ntk_t_ = type { i32, i32, ptr, ptr, ptr, ptr, ptr, ptr, ptr, ptr, ptr, ptr, ptr, [11 x i32], i32, i32, i32, i32, ptr, i32, ptr, ptr, i32, i32, i32, double, i32, %struct.Vec_Int_t_, ptr, ptr, ptr, ptr, ptr, float, i32, ptr, ptr, ptr, ptr, ptr, ptr, ptr, ptr, ptr, ptr, ptr, ptr, ptr, ptr, ptr, ptr, ptr, ptr, ptr, ptr, ptr, ptr }
%struct.Vec_Ptr_t_ = type { i32, i32, ptr }

@stdout = external global ptr, align 8
@.str.3 = private unnamed_addr constant [43 x i8] c"Network \22%s\22 contains combinational loop!\0A\00", align 1
@.str.4 = private unnamed_addr constant [66 x i8] c"Node \22%s\22 is encountered twice on the following path to the COs:\0A\00", align 1
@.str.5 = private unnamed_addr constant [7 x i8] c" %s ->\00", align 1
@.str.9 = private unnamed_addr constant [65 x i8] c"Box \22%s\22 is encountered twice on the following path to the COs:\0A\00", align 1

; Function Attrs: inlinehint nounwind uwtable
define internal i32 @Abc_NtkIsNetlist(ptr noundef %0) #2 {
  %2 = alloca ptr, align 8
  store ptr %0, ptr %2, align 8, !tbaa !32
  %3 = load ptr, ptr %2, align 8, !tbaa !32
  %4 = getelementptr inbounds nuw %struct.Abc_Ntk_t_, ptr %3, i32 0, i32 0
  %5 = load i32, ptr %4, align 8, !tbaa !33
  %6 = icmp eq i32 %5, 1
  %7 = zext i1 %6 to i32
  ret i32 %7
}

; Function Attrs: inlinehint nounwind uwtable
define internal i32 @Abc_ObjIsBo(ptr noundef %0) #2 {
  %2 = alloca ptr, align 8
  store ptr %0, ptr %2, align 8, !tbaa !3
  %3 = load ptr, ptr %2, align 8, !tbaa !3
  %4 = getelementptr inbounds nuw %struct.Abc_Obj_t_, ptr %3, i32 0, i32 3
  %5 = load i32, ptr %4, align 4
  %6 = and i32 %5, 15
  %7 = icmp eq i32 %6, 5
  %8 = zext i1 %7 to i32
  ret i32 %8
}

; Function Attrs: inlinehint nounwind uwtable
define internal ptr @Abc_ObjFanin0Ntk(ptr noundef %0) #2 {
  %2 = alloca ptr, align 8
  store ptr %0, ptr %2, align 8, !tbaa !3
  %3 = load ptr, ptr %2, align 8, !tbaa !3
  %4 = getelementptr inbounds nuw %struct.Abc_Obj_t_, ptr %3, i32 0, i32 0
  %5 = load ptr, ptr %4, align 8, !tbaa !10
  %6 = call i32 @Abc_NtkIsNetlist(ptr noundef %5)
  %7 = icmp ne i32 %6, 0
  br i1 %7, label %8, label %11

8:                                                ; preds = %1
  %9 = load ptr, ptr %2, align 8, !tbaa !3
  %10 = call ptr @Abc_ObjFanin0(ptr noundef %9)
  br label %13

11:                                               ; preds = %1
  %12 = load ptr, ptr %2, align 8, !tbaa !3
  br label %13

13:                                               ; preds = %11, %8
  %14 = phi ptr [ %10, %8 ], [ %12, %11 ]
  ret ptr %14
}

; Function Attrs: inlinehint nounwind uwtable
define internal ptr @Abc_ObjFanin0(ptr noundef %0) #2 {
  %2 = alloca ptr, align 8
  store ptr %0, ptr %2, align 8, !tbaa !3
  %3 = load ptr, ptr %2, align 8, !tbaa !3
  %4 = getelementptr inbounds nuw %struct.Abc_Obj_t_, ptr %3, i32 0, i32 0
  %5 = load ptr, ptr %4, align 8, !tbaa !10
  %6 = getelementptr inbounds nuw %struct.Abc_Ntk_t_, ptr %5, i32 0, i32 5
  %7 = load ptr, ptr %6, align 8, !tbaa !35
  %8 = getelementptr inbounds nuw %struct.Vec_Ptr_t_, ptr %7, i32 0, i32 2
  %9 = load ptr, ptr %8, align 8, !tbaa !36
  %10 = load ptr, ptr %2, align 8, !tbaa !3
  %11 = getelementptr inbounds nuw %struct.Abc_Obj_t_, ptr %10, i32 0, i32 4
  %12 = getelementptr inbounds nuw %struct.Vec_Int_t_, ptr %11, i32 0, i32 2
  %13 = load ptr, ptr %12, align 8, !tbaa !38
  %14 = getelementptr inbounds i32, ptr %13, i64 0
  %15 = load i32, ptr %14, align 4, !tbaa !16
  %16 = sext i32 %15 to i64
  %17 = getelementptr inbounds ptr, ptr %9, i64 %16
  %18 = load ptr, ptr %17, align 8, !tbaa !39
  ret ptr %18
}

; Function Attrs: inlinehint nounwind uwtable
define internal ptr @Abc_ObjFanin(ptr noundef %0, i32 noundef %1) #2 {
  %3 = alloca ptr, align 8
  %4 = alloca i32, align 4
  store ptr %0, ptr %3, align 8, !tbaa !3
  store i32 %1, ptr %4, align 4, !tbaa !16
  %5 = load ptr, ptr %3, align 8, !tbaa !3
  %6 = getelementptr inbounds nuw %struct.Abc_Obj_t_, ptr %5, i32 0, i32 0
  %7 = load ptr, ptr %6, align 8, !tbaa !10
  %8 = getelementptr inbounds nuw %struct.Abc_Ntk_t_, ptr %7, i32 0, i32 5
  %9 = load ptr, ptr %8, align 8, !tbaa !35
  %10 = getelementptr inbounds nuw %struct.Vec_Ptr_t_, ptr %9, i32 0, i32 2
  %11 = load ptr, ptr %10, align 8, !tbaa !36
  %12 = load ptr, ptr %3, align 8, !tbaa !3
  %13 = getelementptr inbounds nuw %struct.Abc_Obj_t_, ptr %12, i32 0, i32 4
  %14 = getelementptr inbounds nuw %struct.Vec_Int_t_, ptr %13, i32 0, i32 2
  %15 = load ptr, ptr %14, align 8, !tbaa !38
  %16 = load i32, ptr %4, align 4, !tbaa !16
  %17 = sext i32 %16 to i64
  %18 = getelementptr inbounds i32, ptr %15, i64 %17
  %19 = load i32, ptr %18, align 4, !tbaa !16
  %20 = sext i32 %19 to i64
  %21 = getelementptr inbounds ptr, ptr %11, i64 %20
  %22 = load ptr, ptr %21, align 8, !tbaa !39
  ret ptr %22
}

; Function Attrs: inlinehint nounwind uwtable
define internal i32 @Abc_ObjFaninNum(ptr noundef %0) #2 {
  %2 = alloca ptr, align 8
  store ptr %0, ptr %2, align 8, !tbaa !3
  %3 = load ptr, ptr %2, align 8, !tbaa !3
  %4 = getelementptr inbounds nuw %struct.Abc_Obj_t_, ptr %3, i32 0, i32 4
  %5 = getelementptr inbounds nuw %struct.Vec_Int_t_, ptr %4, i32 0, i32 1
  %6 = load i32, ptr %5, align 4, !tbaa !34
  ret i32 %6
}

; Function Attrs: inlinehint nounwind uwtable
define internal ptr @Abc_ObjFanout0(ptr noundef %0) #2 {
  %2 = alloca ptr, align 8
  store ptr %0, ptr %2, align 8, !tbaa !3
  %3 = load ptr, ptr %2, align 8, !tbaa !3
  %4 = getelementptr inbounds nuw %struct.Abc_Obj_t_, ptr %3, i32 0, i32 0
  %5 = load ptr, ptr %4, align 8, !tbaa !10
  %6 = getelementptr inbounds nuw %struct.Abc_Ntk_t_, ptr %5, i32 0, i32 5
  %7 = load ptr, ptr %6, align 8, !tbaa !35
  %8 = getelementptr inbounds nuw %struct.Vec_Ptr_t_, ptr %7, i32 0, i32 2
  %9 = load ptr, ptr %8, align 8, !tbaa !36
  %10 = load ptr, ptr %2, align 8, !tbaa !3
  %11 = getelementptr inbounds nuw %struct.Abc_Obj_t_, ptr %10, i32 0, i32 5
  %12 = getelementptr inbounds nuw %struct.Vec_Int_t_, ptr %11, i32 0, i32 2
  %13 = load ptr, ptr %12, align 8, !tbaa !55
  %14 = getelementptr inbounds i32, ptr %13, i64 0
  %15 = load i32, ptr %14, align 4, !tbaa !16
  %16 = sext i32 %15 to i64
  %17 = getelementptr inbounds ptr, ptr %9, i64 %16
  %18 = load ptr, ptr %17, align 8, !tbaa !39
  ret ptr %18
}

; Function Attrs: inlinehint nounwind uwtable
define internal i32 @Abc_ObjIsBox(ptr noundef %0) #2 {
  %2 = alloca ptr, align 8
  store ptr %0, ptr %2, align 8, !tbaa !3
  %3 = load ptr, ptr %2, align 8, !tbaa !3
  %4 = getelementptr inbounds nuw %struct.Abc_Obj_t_, ptr %3, i32 0, i32 3
  %5 = load i32, ptr %4, align 4
  %6 = and i32 %5, 15
  %7 = icmp eq i32 %6, 8
  br i1 %7, label %20, label %8

8:                                                ; preds = %1
  %9 = load ptr, ptr %2, align 8, !tbaa !3
  %10 = getelementptr inbounds nuw %struct.Abc_Obj_t_, ptr %9, i32 0, i32 3
  %11 = load i32, ptr %10, align 4
  %12 = and i32 %11, 15
  %13 = icmp eq i32 %12, 9
  br i1 %13, label %20, label %14

14:                                               ; preds = %8
  %15 = load ptr, ptr %2, align 8, !tbaa !3
  %16 = getelementptr inbounds nuw %struct.Abc_Obj_t_, ptr %15, i32 0, i32 3
  %17 = load i32, ptr %16, align 4
  %18 = and i32 %17, 15
  %19 = icmp eq i32 %18, 10
  br label %20

20:                                               ; preds = %14, %8, %1
  %21 = phi i1 [ true, %8 ], [ true, %1 ], [ %19, %14 ]
  %22 = zext i1 %21 to i32
  ret i32 %22
}

; Function Attrs: inlinehint nounwind uwtable
define internal ptr @Abc_NtkName(ptr noundef %0) #2 {
  %2 = alloca ptr, align 8
  store ptr %0, ptr %2, align 8, !tbaa !32
  %3 = load ptr, ptr %2, align 8, !tbaa !32
  %4 = getelementptr inbounds nuw %struct.Abc_Ntk_t_, ptr %3, i32 0, i32 2
  %5 = load ptr, ptr %4, align 8, !tbaa !114
  ret ptr %5
}

; Function Attrs: inlinehint nounwind uwtable
define internal i32 @Abc_ObjIsBlackbox(ptr noundef %0) #2 {
  %2 = alloca ptr, align 8
  store ptr %0, ptr %2, align 8, !tbaa !3
  %3 = load ptr, ptr %2, align 8, !tbaa !3
  %4 = getelementptr inbounds nuw %struct.Abc_Obj_t_, ptr %3, i32 0, i32 3
  %5 = load i32, ptr %4, align 4
  %6 = and i32 %5, 15
  %7 = icmp eq i32 %6, 10
  %8 = zext i1 %7 to i32
  ret i32 %8
}

; Function Attrs: inlinehint nounwind uwtable
define internal i32 @Abc_ObjIsLatch(ptr noundef %0) #2 {
  %2 = alloca ptr, align 8
  store ptr %0, ptr %2, align 8, !tbaa !3
  %3 = load ptr, ptr %2, align 8, !tbaa !3
  %4 = getelementptr inbounds nuw %struct.Abc_Obj_t_, ptr %3, i32 0, i32 3
  %5 = load i32, ptr %4, align 4
  %6 = and i32 %5, 15
  %7 = icmp eq i32 %6, 8
  %8 = zext i1 %7 to i32
  ret i32 %8
}

; Function Attrs: inlinehint nounwind uwtable
define internal i32 @Abc_ObjIsPi(ptr noundef %0) #2 {
  %2 = alloca ptr, align 8
  store ptr %0, ptr %2, align 8, !tbaa !3
  %3 = load ptr, ptr %2, align 8, !tbaa !3
  %4 = getelementptr inbounds nuw %struct.Abc_Obj_t_, ptr %3, i32 0, i32 3
  %5 = load i32, ptr %4, align 4
  %6 = and i32 %5, 15
  %7 = icmp eq i32 %6, 2
  %8 = zext i1 %7 to i32
  ret i32 %8
}

; Function Attrs: nounwind uwtable
define i32 @Abc_NtkIsAcyclicWithBoxes_rec(ptr noundef %0) #0 {
  %2 = alloca i32, align 4
  %3 = alloca ptr, align 8
  %4 = alloca ptr, align 8
  %5 = alloca ptr, align 8
  %6 = alloca i32, align 4
  %7 = alloca i32, align 4
  %8 = alloca i32, align 4
  store ptr %0, ptr %3, align 8, !tbaa !3
  call void @llvm.lifetime.start.p0(i64 8, ptr %4) #11
  %9 = load ptr, ptr %3, align 8, !tbaa !3
  %10 = getelementptr inbounds nuw %struct.Abc_Obj_t_, ptr %9, i32 0, i32 0
  %11 = load ptr, ptr %10, align 8, !tbaa !10
  store ptr %11, ptr %4, align 8, !tbaa !32
  call void @llvm.lifetime.start.p0(i64 8, ptr %5) #11
  call void @llvm.lifetime.start.p0(i64 4, ptr %6) #11
  call void @llvm.lifetime.start.p0(i64 4, ptr %7) #11
  %12 = load ptr, ptr %3, align 8, !tbaa !3
  %13 = call i32 @Abc_ObjIsPi(ptr noundef %12)
  %14 = icmp ne i32 %13, 0
  br i1 %14, label %23, label %15

15:                                               ; preds = %1
  %16 = load ptr, ptr %3, align 8, !tbaa !3
  %17 = call i32 @Abc_ObjIsLatch(ptr noundef %16)
  %18 = icmp ne i32 %17, 0
  br i1 %18, label %23, label %19

19:                                               ; preds = %15
  %20 = load ptr, ptr %3, align 8, !tbaa !3
  %21 = call i32 @Abc_ObjIsBlackbox(ptr noundef %20)
  %22 = icmp ne i32 %21, 0
  br i1 %22, label %23, label %24

23:                                               ; preds = %19, %15, %1
  store i32 1, ptr %2, align 4
  store i32 1, ptr %8, align 4
  br label %119

24:                                               ; preds = %19
  %25 = load ptr, ptr %3, align 8, !tbaa !3
  %26 = call i32 @Abc_NodeIsTravIdCurrent(ptr noundef %25)
  %27 = icmp ne i32 %26, 0
  br i1 %27, label %28, label %48

28:                                               ; preds = %24
  %29 = load ptr, ptr @stdout, align 8, !tbaa !167
  %30 = load ptr, ptr %4, align 8, !tbaa !32
  %31 = call ptr @Abc_NtkName(ptr noundef %30)
  %32 = call i32 (ptr, ptr, ...) @fprintf(ptr noundef %29, ptr noundef @.str.3, ptr noundef %31) #11
  %33 = load ptr, ptr %3, align 8, !tbaa !3
  %34 = call i32 @Abc_ObjIsBox(ptr noundef %33)
  %35 = icmp ne i32 %34, 0
  br i1 %35, label %36, label %41

36:                                               ; preds = %28
  %37 = load ptr, ptr @stdout, align 8, !tbaa !167
  %38 = load ptr, ptr %3, align 8, !tbaa !3
  %39 = call ptr @Abc_ObjName(ptr noundef %38)
  %40 = call i32 (ptr, ptr, ...) @fprintf(ptr noundef %37, ptr noundef @.str.9, ptr noundef %39) #11
  br label %47

41:                                               ; preds = %28
  %42 = load ptr, ptr @stdout, align 8, !tbaa !167
  %43 = load ptr, ptr %3, align 8, !tbaa !3
  %44 = call ptr @Abc_ObjFanout0(ptr noundef %43)
  %45 = call ptr @Abc_ObjName(ptr noundef %44)
  %46 = call i32 (ptr, ptr, ...) @fprintf(ptr noundef %42, ptr noundef @.str.4, ptr noundef %45) #11
  br label %47

47:                                               ; preds = %41, %36
  store i32 0, ptr %2, align 4
  store i32 1, ptr %8, align 4
  br label %119

48:                                               ; preds = %24
  %49 = load ptr, ptr %3, align 8, !tbaa !3
  call void @Abc_NodeSetTravIdCurrent(ptr noundef %49)
  store i32 0, ptr %7, align 4, !tbaa !16
  br label %50

50:                                               ; preds = %114, %48
  %51 = load i32, ptr %7, align 4, !tbaa !16
  %52 = load ptr, ptr %3, align 8, !tbaa !3
  %53 = call i32 @Abc_ObjFaninNum(ptr noundef %52)
  %54 = icmp slt i32 %51, %53
  br i1 %54, label %55, label %59

55:                                               ; preds = %50
  %56 = load ptr, ptr %3, align 8, !tbaa !3
  %57 = load i32, ptr %7, align 4, !tbaa !16
  %58 = call ptr @Abc_ObjFanin(ptr noundef %56, i32 noundef %57)
  store ptr %58, ptr %5, align 8, !tbaa !3
  br label %59

59:                                               ; preds = %55, %50
  %60 = phi i1 [ false, %50 ], [ true, %55 ]
  br i1 %60, label %61, label %117

61:                                               ; preds = %59
  %62 = load ptr, ptr %3, align 8, !tbaa !3
  %63 = call i32 @Abc_ObjIsBox(ptr noundef %62)
  %64 = icmp ne i32 %63, 0
  br i1 %64, label %65, label %68

65:                                               ; preds = %61
  %66 = load ptr, ptr %5, align 8, !tbaa !3
  %67 = call ptr @Abc_ObjFanin0(ptr noundef %66)
  store ptr %67, ptr %5, align 8, !tbaa !3
  br label %68

68:                                               ; preds = %65, %61
  %69 = load ptr, ptr %5, align 8, !tbaa !3
  %70 = call ptr @Abc_ObjFanin0Ntk(ptr noundef %69)
  store ptr %70, ptr %5, align 8, !tbaa !3
  %71 = load ptr, ptr %5, align 8, !tbaa !3
  %72 = call i32 @Abc_ObjIsBo(ptr noundef %71)
  %73 = icmp ne i32 %72, 0
  br i1 %73, label %74, label %77

74:                                               ; preds = %68
  %75 = load ptr, ptr %5, align 8, !tbaa !3
  %76 = call ptr @Abc_ObjFanin0(ptr noundef %75)
  store ptr %76, ptr %5, align 8, !tbaa !3
  br label %77

77:                                               ; preds = %74, %68
  %78 = load ptr, ptr %5, align 8, !tbaa !3
  %79 = call i32 @Abc_ObjIsPi(ptr noundef %78)
  %80 = icmp ne i32 %79, 0
  br i1 %80, label %89, label %81

81:                                               ; preds = %77
  %82 = load ptr, ptr %5, align 8, !tbaa !3
  %83 = call i32 @Abc_ObjIsLatch(ptr noundef %82)
  %84 = icmp ne i32 %83, 0
  br i1 %84, label %89, label %85

85:                                               ; preds = %81
  %86 = load ptr, ptr %5, align 8, !tbaa !3
  %87 = call i32 @Abc_ObjIsBlackbox(ptr noundef %86)
  %88 = icmp ne i32 %87, 0
  br i1 %88, label %89, label %90

89:                                               ; preds = %85, %81, %77
  br label %114

90:                                               ; preds = %85
  %91 = load ptr, ptr %5, align 8, !tbaa !3
  %92 = call i32 @Abc_NodeIsTravIdPrevious(ptr noundef %91)
  %93 = icmp ne i32 %92, 0
  br i1 %93, label %94, label %95

94:                                               ; preds = %90
  br label %114

95:                                               ; preds = %90
  %96 = load ptr, ptr %5, align 8, !tbaa !3
  %97 = call i32 @Abc_NtkIsAcyclicWithBoxes_rec(ptr noundef %96)
  store i32 %97, ptr %6, align 4, !tbaa !16
  %98 = icmp ne i32 %97, 0
  br i1 %98, label %99, label %100

99:                                               ; preds = %95
  br label %114

100:                                              ; preds = %95
  %101 = load ptr, ptr @stdout, align 8, !tbaa !167
  %102 = load ptr, ptr %5, align 8, !tbaa !3
  %103 = call i32 @Abc_ObjIsBox(ptr noundef %102)
  %104 = icmp ne i32 %103, 0
  br i1 %104, label %105, label %107

105:                                              ; preds = %100
  %106 = load ptr, ptr %5, align 8, !tbaa !3
  br label %110

107:                                              ; preds = %100
  %108 = load ptr, ptr %5, align 8, !tbaa !3
  %109 = call ptr @Abc_ObjFanout0(ptr noundef %108)
  br label %110

110:                                              ; preds = %107, %105
  %111 = phi ptr [ %106, %105 ], [ %109, %107 ]
  %112 = call ptr @Abc_ObjName(ptr noundef %111)
  %113 = call i32 (ptr, ptr, ...) @fprintf(ptr noundef %101, ptr noundef @.str.5, ptr noundef %112) #11
  store i32 0, ptr %2, align 4
  store i32 1, ptr %8, align 4
  br label %119

114:                                              ; preds = %99, %94, %89
  %115 = load i32, ptr %7, align 4, !tbaa !16
  %116 = add nsw i32 %115, 1
  store i32 %116, ptr %7, align 4, !tbaa !16
  br label %50, !llvm.loop !172

117:                                              ; preds = %59
  %118 = load ptr, ptr %3, align 8, !tbaa !3
  call void @Abc_NodeSetTravIdPrevious(ptr noundef %118)
  store i32 1, ptr %2, align 4
  store i32 1, ptr %8, align 4
  br label %119

119:                                              ; preds = %117, %110, %47, %23
  call void @llvm.lifetime.end.p0(i64 4, ptr %7) #11
  call void @llvm.lifetime.end.p0(i64 4, ptr %6) #11
  call void @llvm.lifetime.end.p0(i64 8, ptr %5) #11
  call void @llvm.lifetime.end.p0(i64 8, ptr %4) #11
  %120 = load i32, ptr %2, align 4
  ret i32 %120
}