; Function Attrs: nounwind uwtable
define range(i32 0, 2) i32 @Abc_NtkIsAcyclicWithBoxes_rec(ptr noundef %0) local_unnamed_addr #0 {
  %2 = load ptr, ptr %0, align 8, !tbaa !3
  %3 = getelementptr i8, ptr %0, i64 20
  %.val56 = load i32, ptr %3, align 4
  %4 = and i32 %.val56, 15
  switch i32 %4, label %5 [
    i32 2, label %94
    i32 8, label %94
    i32 10, label %94
  ]

5:                                                ; preds = %1
  %6 = tail call fastcc i32 @Abc_NodeIsTravIdCurrent(ptr noundef nonnull %0)
  %.not33 = icmp eq i32 %6, 0
  br i1 %.not33, label %27, label %7

7:                                                ; preds = %5
  %8 = load ptr, ptr @stdout, align 8, !tbaa !161
  %9 = getelementptr i8, ptr %2, i64 8
  %.val60 = load ptr, ptr %9, align 8, !tbaa !109
  %10 = tail call i32 (ptr, ptr, ...) @fprintf(ptr noundef %8, ptr noundef nonnull @.str.3, ptr noundef %.val60) #23
  %.val59 = load i32, ptr %3, align 4
  %11 = and i32 %.val59, 15
  %12 = and i32 %.val59, 14
  %switch.i = icmp ne i32 %12, 8
  %13 = icmp ne i32 %11, 10
  %narrow.i.not = and i1 %switch.i, %13
  %14 = load ptr, ptr @stdout, align 8, !tbaa !161
  br i1 %narrow.i.not, label %18, label %15

15:                                               ; preds = %7
  %16 = tail call ptr @Abc_ObjName(ptr noundef nonnull %0) #23
  %17 = tail call i32 (ptr, ptr, ...) @fprintf(ptr noundef %14, ptr noundef nonnull @.str.9, ptr noundef %16) #23
  br label %94

18:                                               ; preds = %7
  %.val52 = load ptr, ptr %0, align 8, !tbaa !3
  %19 = getelementptr i8, ptr %0, i64 48
  %.val53 = load ptr, ptr %19, align 8, !tbaa !54
  %20 = getelementptr i8, ptr %.val52, i64 32
  %.val52.val = load ptr, ptr %20, align 8, !tbaa !35
  %.val53.val = load i32, ptr %.val53, align 4, !tbaa !31
  %21 = getelementptr i8, ptr %.val52.val, i64 8
  %.val52.val.val = load ptr, ptr %21, align 8, !tbaa !36
  %22 = sext i32 %.val53.val to i64
  %23 = getelementptr inbounds ptr, ptr %.val52.val.val, i64 %22
  %24 = load ptr, ptr %23, align 8, !tbaa !38
  %25 = tail call ptr @Abc_ObjName(ptr noundef %24) #23
  %26 = tail call i32 (ptr, ptr, ...) @fprintf(ptr noundef %14, ptr noundef nonnull @.str.4, ptr noundef %25) #23
  br label %94

27:                                               ; preds = %5
  %.val = load ptr, ptr %0, align 8, !tbaa !3
  %28 = getelementptr i8, ptr %0, i64 16
  %.val43 = load i32, ptr %28, align 8, !tbaa !13
  tail call fastcc void @Abc_NodeSetTravIdCurrent(ptr %.val, i32 %.val43)
  %29 = getelementptr i8, ptr %0, i64 28
  %.val4481 = load i32, ptr %29, align 4, !tbaa !33
  %30 = icmp sgt i32 %.val4481, 0
  br i1 %30, label %.lr.ph, label %.critedge

.lr.ph:                                           ; preds = %27
  %31 = getelementptr i8, ptr %0, i64 32
  br label %32

32:                                               ; preds = %.lr.ph, %91
  %indvars.iv = phi i64 [ 0, %.lr.ph ], [ %indvars.iv.next, %91 ]
  %.val45 = load ptr, ptr %0, align 8, !tbaa !3
  %.val46 = load ptr, ptr %31, align 8, !tbaa !34
  %33 = getelementptr i8, ptr %.val45, i64 32
  %.val45.val = load ptr, ptr %33, align 8, !tbaa !35
  %34 = getelementptr i8, ptr %.val45.val, i64 8
  %.val45.val.val = load ptr, ptr %34, align 8, !tbaa !36
  %35 = getelementptr inbounds nuw i32, ptr %.val46, i64 %indvars.iv
  %36 = load i32, ptr %35, align 4, !tbaa !31
  %37 = sext i32 %36 to i64
  %38 = getelementptr inbounds ptr, ptr %.val45.val.val, i64 %37
  %39 = load ptr, ptr %38, align 8, !tbaa !38
  %.val58 = load i32, ptr %3, align 4
  %40 = and i32 %.val58, 15
  %41 = and i32 %.val58, 14
  %switch.i67 = icmp ne i32 %41, 8
  %42 = icmp ne i32 %40, 10
  %narrow.i68.not = and i1 %switch.i67, %42
  br i1 %narrow.i68.not, label %50, label %43

43:                                               ; preds = %32
  %.val49 = load ptr, ptr %39, align 8, !tbaa !3
  %44 = getelementptr i8, ptr %39, i64 32
  %.val50 = load ptr, ptr %44, align 8, !tbaa !34
  %45 = getelementptr i8, ptr %.val49, i64 32
  %.val49.val = load ptr, ptr %45, align 8, !tbaa !35
  %.val50.val = load i32, ptr %.val50, align 4, !tbaa !31
  %46 = getelementptr i8, ptr %.val49.val, i64 8
  %.val49.val.val = load ptr, ptr %46, align 8, !tbaa !36
  %47 = sext i32 %.val50.val to i64
  %48 = getelementptr inbounds ptr, ptr %.val49.val.val, i64 %47
  %49 = load ptr, ptr %48, align 8, !tbaa !38
  br label %50

50:                                               ; preds = %43, %32
  %.030 = phi ptr [ %49, %43 ], [ %39, %32 ]
  %51 = load ptr, ptr %.030, align 8, !tbaa !3
  %.val.i = load i32, ptr %51, align 8, !tbaa !32
  %.not.i = icmp eq i32 %.val.i, 1
  br i1 %.not.i, label %52, label %Abc_ObjFanin0Ntk.exit

52:                                               ; preds = %50
  %53 = getelementptr i8, ptr %.030, i64 32
  %.val4.i = load ptr, ptr %53, align 8, !tbaa !34
  %54 = getelementptr i8, ptr %51, i64 32
  %.val3.val.i = load ptr, ptr %54, align 8, !tbaa !35
  %.val4.val.i = load i32, ptr %.val4.i, align 4, !tbaa !31
  %55 = getelementptr i8, ptr %.val3.val.i, i64 8
  %.val3.val.val.i = load ptr, ptr %55, align 8, !tbaa !36
  %56 = sext i32 %.val4.val.i to i64
  %57 = getelementptr inbounds ptr, ptr %.val3.val.val.i, i64 %56
  %58 = load ptr, ptr %57, align 8, !tbaa !38
  br label %Abc_ObjFanin0Ntk.exit

Abc_ObjFanin0Ntk.exit:                            ; preds = %50, %52
  %59 = phi ptr [ %58, %52 ], [ %.030, %50 ]
  %60 = getelementptr i8, ptr %59, i64 20
  %.val54 = load i32, ptr %60, align 4
  %61 = and i32 %.val54, 15
  %.not75 = icmp eq i32 %61, 5
  br i1 %.not75, label %62, label %69

62:                                               ; preds = %Abc_ObjFanin0Ntk.exit
  %.val47 = load ptr, ptr %59, align 8, !tbaa !3
  %63 = getelementptr i8, ptr %59, i64 32
  %.val48 = load ptr, ptr %63, align 8, !tbaa !34
  %64 = getelementptr i8, ptr %.val47, i64 32
  %.val47.val = load ptr, ptr %64, align 8, !tbaa !35
  %.val48.val = load i32, ptr %.val48, align 4, !tbaa !31
  %65 = getelementptr i8, ptr %.val47.val, i64 8
  %.val47.val.val = load ptr, ptr %65, align 8, !tbaa !36
  %66 = sext i32 %.val48.val to i64
  %67 = getelementptr inbounds ptr, ptr %.val47.val.val, i64 %66
  %68 = load ptr, ptr %67, align 8, !tbaa !38
  %.phi.trans.insert = getelementptr i8, ptr %68, i64 20
  %.1.val55.pre = load i32, ptr %.phi.trans.insert, align 4
  %.pre = and i32 %.1.val55.pre, 15
  br label %69

69:                                               ; preds = %62, %Abc_ObjFanin0Ntk.exit
  %.pre-phi = phi i32 [ %.pre, %62 ], [ %61, %Abc_ObjFanin0Ntk.exit ]
  %.1 = phi ptr [ %68, %62 ], [ %59, %Abc_ObjFanin0Ntk.exit ]
  switch i32 %.pre-phi, label %70 [
    i32 2, label %91
    i32 8, label %91
    i32 10, label %91
  ]

70:                                               ; preds = %69
  %71 = tail call fastcc i32 @Abc_NodeIsTravIdPrevious(ptr noundef nonnull %.1)
  %.not39 = icmp eq i32 %71, 0
  br i1 %.not39, label %72, label %91

72:                                               ; preds = %70
  %73 = tail call i32 @Abc_NtkIsAcyclicWithBoxes_rec(ptr noundef nonnull %.1)
  %.not40 = icmp eq i32 %73, 0
  br i1 %.not40, label %74, label %91

74:                                               ; preds = %72
  %75 = getelementptr i8, ptr %.1, i64 20
  %76 = load ptr, ptr @stdout, align 8, !tbaa !161
  %.1.val57 = load i32, ptr %75, align 4
  %77 = and i32 %.1.val57, 15
  %78 = and i32 %.1.val57, 14
  %switch.i69 = icmp ne i32 %78, 8
  %79 = icmp ne i32 %77, 10
  %narrow.i70.not = and i1 %switch.i69, %79
  br i1 %narrow.i70.not, label %80, label %87

80:                                               ; preds = %74
  %.1.val = load ptr, ptr %.1, align 8, !tbaa !3
  %81 = getelementptr i8, ptr %.1, i64 48
  %.1.val51 = load ptr, ptr %81, align 8, !tbaa !54
  %82 = getelementptr i8, ptr %.1.val, i64 32
  %.1.val.val = load ptr, ptr %82, align 8, !tbaa !35
  %.1.val51.val = load i32, ptr %.1.val51, align 4, !tbaa !31
  %83 = getelementptr i8, ptr %.1.val.val, i64 8
  %.1.val.val.val = load ptr, ptr %83, align 8, !tbaa !36
  %84 = sext i32 %.1.val51.val to i64
  %85 = getelementptr inbounds ptr, ptr %.1.val.val.val, i64 %84
  %86 = load ptr, ptr %85, align 8, !tbaa !38
  br label %87

87:                                               ; preds = %74, %80
  %88 = phi ptr [ %86, %80 ], [ %.1, %74 ]
  %89 = tail call ptr @Abc_ObjName(ptr noundef %88) #23
  %90 = tail call i32 (ptr, ptr, ...) @fprintf(ptr noundef %76, ptr noundef nonnull @.str.5, ptr noundef %89) #23
  br label %94

91:                                               ; preds = %69, %69, %69, %72, %70
  %indvars.iv.next = add nuw nsw i64 %indvars.iv, 1
  %.val44 = load i32, ptr %29, align 4, !tbaa !33
  %92 = sext i32 %.val44 to i64
  %93 = icmp slt i64 %indvars.iv.next, %92
  br i1 %93, label %32, label %.critedge, !llvm.loop !166

.critedge:                                        ; preds = %91, %27
  %.val61 = load ptr, ptr %0, align 8, !tbaa !3
  %.val62 = load i32, ptr %28, align 8, !tbaa !13
  tail call fastcc void @Abc_NodeSetTravIdPrevious(ptr %.val61, i32 %.val62)
  br label %94

94:                                               ; preds = %1, %1, %1, %15, %18, %.critedge, %87
  %.029 = phi i32 [ 0, %87 ], [ 1, %.critedge ], [ 1, %1 ], [ 0, %18 ], [ 0, %15 ], [ 1, %1 ], [ 1, %1 ]
  ret i32 %.029
}